; Function Attrs: nounwind uwtable
define dso_local void @core_array_and(ptr noundef %0, ptr noundef %1) local_unnamed_addr #0 {
  %3 = load i32, ptr @node_record_count, align 4
  %4 = icmp sgt i32 %3, 0
  br i1 %4, label %.lr.ph, label %._crit_edge

.lr.ph:                                           ; preds = %2, %25
  %indvars.iv = phi i64 [ %indvars.iv.next, %25 ], [ 0, %2 ]
  %5 = getelementptr inbounds nuw ptr, ptr %0, i64 %indvars.iv
  %6 = load ptr, ptr %5, align 8
  %.not = icmp eq ptr %6, null
  br i1 %.not, label %.thread, label %7

7:                                                ; preds = %.lr.ph
  %8 = getelementptr inbounds nuw ptr, ptr %1, i64 %indvars.iv
  %9 = load ptr, ptr %8, align 8
  %.not32 = icmp eq ptr %9, null
  br i1 %.not32, label %24, label %10

10:                                               ; preds = %7
  %11 = tail call i64 @bit_size(ptr noundef nonnull %6) #3
  %12 = trunc i64 %11 to i32
  %13 = load ptr, ptr %8, align 8
  %14 = tail call i64 @bit_size(ptr noundef %13) #3
  %15 = trunc i64 %14 to i32
  %16 = icmp sgt i32 %12, %15
  br i1 %16, label %.sink.split, label %17

17:                                               ; preds = %10
  %18 = icmp slt i32 %12, %15
  br i1 %18, label %.sink.split, label %21

.sink.split:                                      ; preds = %17, %10
  %.sink38 = phi i64 [ %11, %10 ], [ %14, %17 ]
  %.sink = phi ptr [ %8, %10 ], [ %5, %17 ]
  %sext = shl i64 %.sink38, 32
  %19 = ashr exact i64 %sext, 32
  %20 = tail call ptr @slurm_bit_realloc(ptr noundef nonnull %.sink, i64 noundef %19) #3
  br label %21

21:                                               ; preds = %.sink.split, %17
  %22 = load ptr, ptr %5, align 8
  %23 = load ptr, ptr %8, align 8
  tail call void @bit_and(ptr noundef %22, ptr noundef %23) #3
  br label %25

24:                                               ; preds = %7
  tail call void @slurm_bit_free(ptr noundef nonnull %5) #3
  br label %.thread

.thread:                                          ; preds = %.lr.ph, %24
  store ptr null, ptr %5, align 8
  br label %25

25:                                               ; preds = %21, %.thread
  %indvars.iv.next = add nuw nsw i64 %indvars.iv, 1
  %26 = load i32, ptr @node_record_count, align 4
  %27 = sext i32 %26 to i64
  %28 = icmp slt i64 %indvars.iv.next, %27
  br i1 %28, label %.lr.ph, label %._crit_edge, !llvm.loop !14

._crit_edge:                                      ; preds = %25, %2
  ret void
}